target datalayout = "e-m:e-p270:32:32-p271:32:32-p272:64:64-i64:64-i128:128-f80:128-n8:16:32:64-S128"
target triple = "x86_64-unknown-linux-gnu"

%class.b2ChainShape = type <{ %class.b2Shape, ptr, i32, %struct.b2Vec2, %struct.b2Vec2, [4 x i8] }>
%class.b2Shape = type { ptr, i32, float }
%struct.b2Vec2 = type { float, float }

; Function Attrs: mustprogress uwtable
define linkonce_odr hidden void @_Z6b2FreePv(ptr noundef %mem) #1 comdat {
entry:
  %mem.addr = alloca ptr, align 8
  store ptr %mem, ptr %mem.addr, align 8
  %0 = load ptr, ptr %mem.addr, align 8
  call void @_Z14b2Free_DefaultPv(ptr noundef %0)
  ret void
}

; Function Attrs: mustprogress uwtable
define void @_ZN12b2ChainShape5ClearEv(ptr noundef nonnull align 8 dereferenceable(44) %this) #1 align 2 {
entry:
  %this.addr = alloca ptr, align 8
  store ptr %this, ptr %this.addr, align 8
  %this1 = load ptr, ptr %this.addr, align 8
  %m_vertices = getelementptr inbounds %class.b2ChainShape, ptr %this1, i32 0, i32 1
  %0 = load ptr, ptr %m_vertices, align 8
  call void @_Z6b2FreePv(ptr noundef %0)
  %m_vertices2 = getelementptr inbounds %class.b2ChainShape, ptr %this1, i32 0, i32 1
  store ptr null, ptr %m_vertices2, align 8
  %m_count = getelementptr inbounds %class.b2ChainShape, ptr %this1, i32 0, i32 2
  store i32 0, ptr %m_count, align 8
  ret void
}