; Function Attrs: mustprogress uwtable
define void @_ZN12b2ChainShape5ClearEv(ptr nocapture noundef nonnull align 8 dereferenceable(44) %this) local_unnamed_addr #1 align 2 {
entry:
  %m_vertices = getelementptr inbounds i8, ptr %this, i64 16
  %0 = load ptr, ptr %m_vertices, align 8
  tail call void @_Z14b2Free_DefaultPv(ptr noundef %0)
  store ptr null, ptr %m_vertices, align 8
  %m_count = getelementptr inbounds i8, ptr %this, i64 24
  store i32 0, ptr %m_count, align 8
  ret void
}